target datalayout = "e-m:e-p270:32:32-p271:32:32-p272:64:64-i64:64-i128:128-f80:128-n8:16:32:64-S128"
target triple = "x86_64-pc-linux-gnu"

%struct.Msat_IntVec_t_ = type { ptr, i32, i32 }

; Function Attrs: nounwind uwtable
define void @Msat_IntVecPushUniqueOrder(ptr noundef %0, i32 noundef %1, i32 noundef %2) #0 {
  %4 = alloca ptr, align 8
  %5 = alloca i32, align 4
  %6 = alloca i32, align 4
  %7 = alloca i32, align 4
  %8 = alloca i32, align 4
  %9 = alloca i32, align 4
  store ptr %0, ptr %4, align 8, !tbaa !7
  store i32 %1, ptr %5, align 4, !tbaa !3
  store i32 %2, ptr %6, align 4, !tbaa !3
  call void @llvm.lifetime.start.p0(i64 4, ptr %7) #7
  call void @llvm.lifetime.start.p0(i64 4, ptr %8) #7
  call void @llvm.lifetime.start.p0(i64 4, ptr %9) #7
  %10 = load ptr, ptr %4, align 8, !tbaa !7
  %11 = load i32, ptr %5, align 4, !tbaa !3
  %12 = call i32 @Msat_IntVecPushUnique(ptr noundef %10, i32 noundef %11)
  %13 = load ptr, ptr %4, align 8, !tbaa !7
  %14 = getelementptr inbounds nuw %struct.Msat_IntVec_t_, ptr %13, i32 0, i32 1
  %15 = load i32, ptr %14, align 8, !tbaa !10
  %16 = sub nsw i32 %15, 1
  store i32 %16, ptr %9, align 4, !tbaa !3
  br label %17

17:                                               ; preds = %66, %3
  %18 = load i32, ptr %9, align 4, !tbaa !3
  %19 = icmp sgt i32 %18, 0
  br i1 %19, label %20, label %69

20:                                               ; preds = %17
  %21 = load ptr, ptr %4, align 8, !tbaa !7
  %22 = getelementptr inbounds nuw %struct.Msat_IntVec_t_, ptr %21, i32 0, i32 0
  %23 = load ptr, ptr %22, align 8, !tbaa !14
  %24 = load i32, ptr %9, align 4, !tbaa !3
  %25 = sext i32 %24 to i64
  %26 = getelementptr inbounds i32, ptr %23, i64 %25
  %27 = load i32, ptr %26, align 4, !tbaa !3
  store i32 %27, ptr %7, align 4, !tbaa !3
  %28 = load ptr, ptr %4, align 8, !tbaa !7
  %29 = getelementptr inbounds nuw %struct.Msat_IntVec_t_, ptr %28, i32 0, i32 0
  %30 = load ptr, ptr %29, align 8, !tbaa !14
  %31 = load i32, ptr %9, align 4, !tbaa !3
  %32 = sub nsw i32 %31, 1
  %33 = sext i32 %32 to i64
  %34 = getelementptr inbounds i32, ptr %30, i64 %33
  %35 = load i32, ptr %34, align 4, !tbaa !3
  store i32 %35, ptr %8, align 4, !tbaa !3
  %36 = load i32, ptr %6, align 4, !tbaa !3
  %37 = icmp ne i32 %36, 0
  br i1 %37, label %38, label %42

38:                                               ; preds = %20
  %39 = load i32, ptr %7, align 4, !tbaa !3
  %40 = load i32, ptr %8, align 4, !tbaa !3
  %41 = icmp sge i32 %39, %40
  br i1 %41, label %49, label %42

42:                                               ; preds = %38, %20
  %43 = load i32, ptr %6, align 4, !tbaa !3
  %44 = icmp ne i32 %43, 0
  br i1 %44, label %50, label %45

45:                                               ; preds = %42
  %46 = load i32, ptr %7, align 4, !tbaa !3
  %47 = load i32, ptr %8, align 4, !tbaa !3
  %48 = icmp sle i32 %46, %47
  br i1 %48, label %49, label %50

49:                                               ; preds = %45, %38
  br label %69

50:                                               ; preds = %45, %42
  %51 = load i32, ptr %8, align 4, !tbaa !3
  %52 = load ptr, ptr %4, align 8, !tbaa !7
  %53 = getelementptr inbounds nuw %struct.Msat_IntVec_t_, ptr %52, i32 0, i32 0
  %54 = load ptr, ptr %53, align 8, !tbaa !14
  %55 = load i32, ptr %9, align 4, !tbaa !3
  %56 = sext i32 %55 to i64
  %57 = getelementptr inbounds i32, ptr %54, i64 %56
  store i32 %51, ptr %57, align 4, !tbaa !3
  %58 = load i32, ptr %7, align 4, !tbaa !3
  %59 = load ptr, ptr %4, align 8, !tbaa !7
  %60 = getelementptr inbounds nuw %struct.Msat_IntVec_t_, ptr %59, i32 0, i32 0
  %61 = load ptr, ptr %60, align 8, !tbaa !14
  %62 = load i32, ptr %9, align 4, !tbaa !3
  %63 = sub nsw i32 %62, 1
  %64 = sext i32 %63 to i64
  %65 = getelementptr inbounds i32, ptr %61, i64 %64
  store i32 %58, ptr %65, align 4, !tbaa !3
  br label %66

66:                                               ; preds = %50
  %67 = load i32, ptr %9, align 4, !tbaa !3
  %68 = add nsw i32 %67, -1
  store i32 %68, ptr %9, align 4, !tbaa !3
  br label %17, !llvm.loop !19

69:                                               ; preds = %49, %17
  call void @llvm.lifetime.end.p0(i64 4, ptr %9) #7
  call void @llvm.lifetime.end.p0(i64 4, ptr %8) #7
  call void @llvm.lifetime.end.p0(i64 4, ptr %7) #7
  ret void
}